target datalayout = "e-m:e-p270:32:32-p271:32:32-p272:64:64-i64:64-i128:128-f80:128-n8:16:32:64-S128"
target triple = "x86_64-pc-linux-gnu"

%struct.rb_io_buffer = type { ptr, i64, i32, i64 }

; Function Attrs: nounwind sspstrong uwtable
define internal void @io_buffer_free(ptr noundef %0) #0 {
  %2 = alloca ptr, align 8
  store ptr %0, ptr %2, align 8, !tbaa !11
  %3 = load ptr, ptr %2, align 8, !tbaa !11
  %4 = getelementptr inbounds nuw %struct.rb_io_buffer, ptr %3, i32 0, i32 0
  %5 = load ptr, ptr %4, align 8, !tbaa !17
  %6 = icmp ne ptr %5, null
  br i1 %6, label %7, label %40

7:                                                ; preds = %1
  %8 = load ptr, ptr %2, align 8, !tbaa !11
  %9 = getelementptr inbounds nuw %struct.rb_io_buffer, ptr %8, i32 0, i32 2
  %10 = load i32, ptr %9, align 8, !tbaa !18
  %11 = and i32 %10, 2
  %12 = icmp ne i32 %11, 0
  br i1 %12, label %13, label %17

13:                                               ; preds = %7
  %14 = load ptr, ptr %2, align 8, !tbaa !11
  %15 = getelementptr inbounds nuw %struct.rb_io_buffer, ptr %14, i32 0, i32 0
  %16 = load ptr, ptr %15, align 8, !tbaa !17
  call void @free(ptr noundef %16) #22
  br label %17

17:                                               ; preds = %13, %7
  %18 = load ptr, ptr %2, align 8, !tbaa !11
  %19 = getelementptr inbounds nuw %struct.rb_io_buffer, ptr %18, i32 0, i32 2
  %20 = load i32, ptr %19, align 8, !tbaa !18
  %21 = and i32 %20, 4
  %22 = icmp ne i32 %21, 0
  br i1 %22, label %23, label %31

23:                                               ; preds = %17
  %24 = load ptr, ptr %2, align 8, !tbaa !11
  %25 = getelementptr inbounds nuw %struct.rb_io_buffer, ptr %24, i32 0, i32 0
  %26 = load ptr, ptr %25, align 8, !tbaa !17
  %27 = load ptr, ptr %2, align 8, !tbaa !11
  %28 = getelementptr inbounds nuw %struct.rb_io_buffer, ptr %27, i32 0, i32 1
  %29 = load i64, ptr %28, align 8, !tbaa !19
  %30 = call i32 @munmap(ptr noundef %26, i64 noundef %29) #22
  br label %31

31:                                               ; preds = %23, %17
  %32 = load ptr, ptr %2, align 8, !tbaa !11
  %33 = getelementptr inbounds nuw %struct.rb_io_buffer, ptr %32, i32 0, i32 0
  store ptr null, ptr %33, align 8, !tbaa !17
  %34 = load ptr, ptr %2, align 8, !tbaa !11
  %35 = getelementptr inbounds nuw %struct.rb_io_buffer, ptr %34, i32 0, i32 1
  store i64 0, ptr %35, align 8, !tbaa !19
  %36 = load ptr, ptr %2, align 8, !tbaa !11
  %37 = getelementptr inbounds nuw %struct.rb_io_buffer, ptr %36, i32 0, i32 2
  store i32 0, ptr %37, align 8, !tbaa !18
  %38 = load ptr, ptr %2, align 8, !tbaa !11
  %39 = getelementptr inbounds nuw %struct.rb_io_buffer, ptr %38, i32 0, i32 3
  store i64 4, ptr %39, align 8, !tbaa !13
  br label %40

40:                                               ; preds = %31, %1
  ret void
}

; Function Attrs: nounwind sspstrong uwtable
define hidden void @rb_io_buffer_type_free(ptr noundef %0) #0 {
  %2 = alloca ptr, align 8
  %3 = alloca ptr, align 8
  store ptr %0, ptr %2, align 8, !tbaa !7
  call void @llvm.lifetime.start.p0(i64 8, ptr %3) #22
  %4 = load ptr, ptr %2, align 8, !tbaa !7
  store ptr %4, ptr %3, align 8, !tbaa !11
  %5 = load ptr, ptr %3, align 8, !tbaa !11
  call void @io_buffer_free(ptr noundef %5)
  call void @llvm.lifetime.end.p0(i64 8, ptr %3) #22
  ret void
}