; Function Attrs: nounwind sspstrong uwtable
define hidden void @rb_io_buffer_type_free(ptr noundef captures(none) %0) #0 {
  %2 = load ptr, ptr %0, align 8, !tbaa !14
  %.not.i = icmp eq ptr %2, null
  br i1 %.not.i, label %io_buffer_free.exit, label %3

3:                                                ; preds = %1
  %4 = getelementptr inbounds nuw i8, ptr %0, i64 16
  %5 = load i32, ptr %4, align 8, !tbaa !15
  %6 = and i32 %5, 2
  %.not10.i = icmp eq i32 %6, 0
  br i1 %.not10.i, label %8, label %7

7:                                                ; preds = %3
  tail call void @free(ptr noundef nonnull %2) #25
  %.pre.i = load i32, ptr %4, align 8, !tbaa !15
  br label %8

8:                                                ; preds = %7, %3
  %9 = phi i32 [ %.pre.i, %7 ], [ %5, %3 ]
  %10 = and i32 %9, 4
  %.not11.i = icmp eq i32 %10, 0
  br i1 %.not11.i, label %16, label %11

11:                                               ; preds = %8
  %12 = load ptr, ptr %0, align 8, !tbaa !14
  %13 = getelementptr inbounds nuw i8, ptr %0, i64 8
  %14 = load i64, ptr %13, align 8, !tbaa !16
  %15 = tail call i32 @munmap(ptr noundef %12, i64 noundef %14) #25
  br label %16

16:                                               ; preds = %11, %8
  %17 = getelementptr inbounds nuw i8, ptr %0, i64 24
  tail call void @llvm.memset.p0.i64(ptr noundef nonnull align 8 dereferenceable(20) %0, i8 0, i64 20, i1 false)
  store i64 4, ptr %17, align 8, !tbaa !7
  br label %io_buffer_free.exit

io_buffer_free.exit:                              ; preds = %1, %16
  ret void
}